; Function Attrs: nounwind uwtable
define hidden noundef signext i8 @nfaExecLimEx384_reportCurrent(ptr noundef %0, ptr noundef readonly captures(none) %1) local_unnamed_addr #0 {
  %3 = alloca %struct.m384, align 16
  %4 = alloca %struct.m384, align 16
  %5 = getelementptr inbounds nuw i8, ptr %1, i64 16
  %6 = load ptr, ptr %5, align 8
  %.sroa.06.0.copyload = load <2 x i64>, ptr %6, align 16
  %.sroa.47.0..sroa_idx = getelementptr inbounds nuw i8, ptr %6, i64 16
  %.sroa.47.0.copyload = load <2 x i64>, ptr %.sroa.47.0..sroa_idx, align 16
  %.sroa.58.0..sroa_idx = getelementptr inbounds nuw i8, ptr %6, i64 32
  %.sroa.58.0.copyload = load <2 x i64>, ptr %.sroa.58.0..sroa_idx, align 16
  call void @llvm.lifetime.start.p0(i64 48, ptr nonnull %3) #12
  %7 = getelementptr inbounds nuw i8, ptr %0, i64 496
  tail call void @llvm.experimental.noalias.scope.decl(metadata !557)
  call void @llvm.assume(i1 true) [ "align"(ptr %7, i64 16) ], !noalias !557
  %8 = load <2 x i64>, ptr %7, align 16, !noalias !557
  store <2 x i64> %8, ptr %3, align 16, !alias.scope !557
  %9 = getelementptr inbounds nuw i8, ptr %3, i64 16
  %10 = getelementptr inbounds nuw i8, ptr %0, i64 512
  call void @llvm.assume(i1 true) [ "align"(ptr %10, i64 16) ], !noalias !557
  %11 = load <2 x i64>, ptr %10, align 16, !noalias !557
  store <2 x i64> %11, ptr %9, align 16, !alias.scope !557
  %12 = getelementptr inbounds nuw i8, ptr %3, i64 32
  %13 = getelementptr inbounds nuw i8, ptr %0, i64 528
  call void @llvm.assume(i1 true) [ "align"(ptr %13, i64 16) ], !noalias !557
  %14 = load <2 x i64>, ptr %13, align 16, !noalias !557
  store <2 x i64> %14, ptr %12, align 16, !alias.scope !557
  call void @llvm.lifetime.start.p0(i64 48, ptr nonnull %4) #12
  %15 = and <2 x i64> %8, %.sroa.06.0.copyload
  store <2 x i64> %15, ptr %4, align 16, !alias.scope !560
  %16 = and <2 x i64> %11, %.sroa.47.0.copyload
  %17 = getelementptr inbounds nuw i8, ptr %4, i64 16
  store <2 x i64> %16, ptr %17, align 16, !alias.scope !560
  %18 = and <2 x i64> %14, %.sroa.58.0.copyload
  %19 = getelementptr inbounds nuw i8, ptr %4, i64 32
  store <2 x i64> %18, ptr %19, align 16, !alias.scope !560
  %20 = or <2 x i64> %16, %15
  %21 = or <2 x i64> %20, %18
  %22 = bitcast <2 x i64> %21 to <16 x i8>
  %23 = icmp ne <16 x i8> %22, zeroinitializer
  %24 = bitcast <16 x i1> %23 to i16
  %.not = icmp eq i16 %24, 0
  br i1 %.not, label %moNfaReportCurrent384.exit, label %25, !prof !80

25:                                               ; preds = %2
  %26 = getelementptr inbounds nuw i8, ptr %0, i64 64
  %27 = getelementptr inbounds nuw i8, ptr %0, i64 344
  %28 = load i32, ptr %27, align 8
  %29 = zext i32 %28 to i64
  %30 = getelementptr inbounds nuw i8, ptr %26, i64 %29
  %31 = getelementptr inbounds nuw i8, ptr %1, i64 32
  %32 = load i64, ptr %31, align 8
  %33 = getelementptr inbounds nuw i8, ptr %1, i64 8
  %34 = load i32, ptr %33, align 8
  %35 = zext i32 %34 to i64
  %.idx.i = mul nuw nsw i64 %35, 24
  %36 = getelementptr i8, ptr %1, i64 112
  %37 = getelementptr i8, ptr %36, i64 %.idx.i
  %38 = load i64, ptr %37, align 8
  %39 = add i64 %38, %32
  %40 = getelementptr inbounds nuw i8, ptr %1, i64 88
  %41 = load ptr, ptr %40, align 8
  %42 = getelementptr inbounds nuw i8, ptr %1, i64 96
  %43 = load ptr, ptr %42, align 8
  %44 = call fastcc signext i8 @moProcessAcceptsNoSquash384(ptr noundef nonnull %26, ptr noundef %4, ptr noundef %3, ptr noundef nonnull %30, i64 noundef %39, ptr noundef %41, ptr noundef %43)
  br label %moNfaReportCurrent384.exit

moNfaReportCurrent384.exit:                       ; preds = %25, %2
  call void @llvm.lifetime.end.p0(i64 48, ptr nonnull %4) #12
  call void @llvm.lifetime.end.p0(i64 48, ptr nonnull %3) #12
  ret i8 1
}